target datalayout = "e-m:e-p270:32:32-p271:32:32-p272:64:64-i64:64-i128:128-f80:128-n8:16:32:64-S128"
target triple = "x86_64-pc-linux-gnu"

%struct.sp_int = type { i16, i16, [129 x i64] }

; Function Attrs: nounwind uwtable
define internal void @_sp_sub_d(ptr noundef %0, i64 noundef %1, ptr noundef %2) #0 {
  %4 = alloca ptr, align 8
  %5 = alloca i64, align 8
  %6 = alloca ptr, align 8
  %7 = alloca i32, align 4
  %8 = alloca i64, align 8
  %9 = alloca i32, align 4
  store ptr %0, ptr %4, align 8, !tbaa !3
  store i64 %1, ptr %5, align 8, !tbaa !16
  store ptr %2, ptr %6, align 8, !tbaa !3
  %10 = load ptr, ptr %4, align 8, !tbaa !3
  %11 = getelementptr inbounds nuw %struct.sp_int, ptr %10, i32 0, i32 0
  %12 = load i16, ptr %11, align 8, !tbaa !15
  %13 = load ptr, ptr %6, align 8, !tbaa !3
  %14 = getelementptr inbounds nuw %struct.sp_int, ptr %13, i32 0, i32 0
  store i16 %12, ptr %14, align 8, !tbaa !15
  %15 = load ptr, ptr %4, align 8, !tbaa !3
  %16 = getelementptr inbounds nuw %struct.sp_int, ptr %15, i32 0, i32 0
  %17 = load i16, ptr %16, align 8, !tbaa !15
  %18 = zext i16 %17 to i32
  %19 = icmp eq i32 %18, 0
  br i1 %19, label %20, label %24

20:                                               ; preds = %3
  %21 = load ptr, ptr %6, align 8, !tbaa !3
  %22 = getelementptr inbounds nuw %struct.sp_int, ptr %21, i32 0, i32 2
  %23 = getelementptr inbounds [129 x i64], ptr %22, i64 0, i64 0
  store i64 0, ptr %23, align 8, !tbaa !16
  br label %146

24:                                               ; preds = %3
  call void @llvm.lifetime.start.p0(i64 4, ptr %7) #8
  store i32 0, ptr %7, align 4, !tbaa !8
  call void @llvm.lifetime.start.p0(i64 8, ptr %8) #8
  %25 = load ptr, ptr %4, align 8, !tbaa !3
  %26 = getelementptr inbounds nuw %struct.sp_int, ptr %25, i32 0, i32 2
  %27 = getelementptr inbounds [129 x i64], ptr %26, i64 0, i64 0
  %28 = load i64, ptr %27, align 8, !tbaa !16
  store i64 %28, ptr %8, align 8, !tbaa !16
  %29 = load i64, ptr %8, align 8, !tbaa !16
  %30 = load i64, ptr %5, align 8, !tbaa !16
  %31 = sub i64 %29, %30
  %32 = load ptr, ptr %6, align 8, !tbaa !3
  %33 = getelementptr inbounds nuw %struct.sp_int, ptr %32, i32 0, i32 2
  %34 = getelementptr inbounds [129 x i64], ptr %33, i64 0, i64 0
  store i64 %31, ptr %34, align 8, !tbaa !16
  %35 = load ptr, ptr %6, align 8, !tbaa !3
  %36 = getelementptr inbounds nuw %struct.sp_int, ptr %35, i32 0, i32 2
  %37 = getelementptr inbounds [129 x i64], ptr %36, i64 0, i64 0
  %38 = load i64, ptr %37, align 8, !tbaa !16
  %39 = load i64, ptr %8, align 8, !tbaa !16
  %40 = icmp ugt i64 %38, %39
  br i1 %40, label %41, label %77

41:                                               ; preds = %24
  %42 = load i32, ptr %7, align 4, !tbaa !8
  %43 = add i32 %42, 1
  store i32 %43, ptr %7, align 4, !tbaa !8
  br label %44

44:                                               ; preds = %73, %41
  %45 = load i32, ptr %7, align 4, !tbaa !8
  %46 = load ptr, ptr %4, align 8, !tbaa !3
  %47 = getelementptr inbounds nuw %struct.sp_int, ptr %46, i32 0, i32 0
  %48 = load i16, ptr %47, align 8, !tbaa !15
  %49 = zext i16 %48 to i32
  %50 = icmp ult i32 %45, %49
  br i1 %50, label %51, label %76

51:                                               ; preds = %44
  %52 = load ptr, ptr %4, align 8, !tbaa !3
  %53 = getelementptr inbounds nuw %struct.sp_int, ptr %52, i32 0, i32 2
  %54 = load i32, ptr %7, align 4, !tbaa !8
  %55 = zext i32 %54 to i64
  %56 = getelementptr inbounds nuw [129 x i64], ptr %53, i64 0, i64 %55
  %57 = load i64, ptr %56, align 8, !tbaa !16
  %58 = sub i64 %57, 1
  %59 = load ptr, ptr %6, align 8, !tbaa !3
  %60 = getelementptr inbounds nuw %struct.sp_int, ptr %59, i32 0, i32 2
  %61 = load i32, ptr %7, align 4, !tbaa !8
  %62 = zext i32 %61 to i64
  %63 = getelementptr inbounds nuw [129 x i64], ptr %60, i64 0, i64 %62
  store i64 %58, ptr %63, align 8, !tbaa !16
  %64 = load ptr, ptr %6, align 8, !tbaa !3
  %65 = getelementptr inbounds nuw %struct.sp_int, ptr %64, i32 0, i32 2
  %66 = load i32, ptr %7, align 4, !tbaa !8
  %67 = zext i32 %66 to i64
  %68 = getelementptr inbounds nuw [129 x i64], ptr %65, i64 0, i64 %67
  %69 = load i64, ptr %68, align 8, !tbaa !16
  %70 = icmp ne i64 %69, -1
  br i1 %70, label %71, label %72

71:                                               ; preds = %51
  br label %76

72:                                               ; preds = %51
  br label %73

73:                                               ; preds = %72
  %74 = load i32, ptr %7, align 4, !tbaa !8
  %75 = add i32 %74, 1
  store i32 %75, ptr %7, align 4, !tbaa !8
  br label %44, !llvm.loop !44

76:                                               ; preds = %71, %44
  br label %77

77:                                               ; preds = %76, %24
  %78 = load ptr, ptr %6, align 8, !tbaa !3
  %79 = load ptr, ptr %4, align 8, !tbaa !3
  %80 = icmp ne ptr %78, %79
  br i1 %80, label %81, label %107

81:                                               ; preds = %77
  %82 = load i32, ptr %7, align 4, !tbaa !8
  %83 = add i32 %82, 1
  store i32 %83, ptr %7, align 4, !tbaa !8
  br label %84

84:                                               ; preds = %103, %81
  %85 = load i32, ptr %7, align 4, !tbaa !8
  %86 = load ptr, ptr %4, align 8, !tbaa !3
  %87 = getelementptr inbounds nuw %struct.sp_int, ptr %86, i32 0, i32 0
  %88 = load i16, ptr %87, align 8, !tbaa !15
  %89 = zext i16 %88 to i32
  %90 = icmp ult i32 %85, %89
  br i1 %90, label %91, label %106

91:                                               ; preds = %84
  %92 = load ptr, ptr %4, align 8, !tbaa !3
  %93 = getelementptr inbounds nuw %struct.sp_int, ptr %92, i32 0, i32 2
  %94 = load i32, ptr %7, align 4, !tbaa !8
  %95 = zext i32 %94 to i64
  %96 = getelementptr inbounds nuw [129 x i64], ptr %93, i64 0, i64 %95
  %97 = load i64, ptr %96, align 8, !tbaa !16
  %98 = load ptr, ptr %6, align 8, !tbaa !3
  %99 = getelementptr inbounds nuw %struct.sp_int, ptr %98, i32 0, i32 2
  %100 = load i32, ptr %7, align 4, !tbaa !8
  %101 = zext i32 %100 to i64
  %102 = getelementptr inbounds nuw [129 x i64], ptr %99, i64 0, i64 %101
  store i64 %97, ptr %102, align 8, !tbaa !16
  br label %103

103:                                              ; preds = %91
  %104 = load i32, ptr %7, align 4, !tbaa !8
  %105 = add i32 %104, 1
  store i32 %105, ptr %7, align 4, !tbaa !8
  br label %84, !llvm.loop !45

106:                                              ; preds = %84
  br label %107

107:                                              ; preds = %106, %77
  br label %108

108:                                              ; preds = %107
  call void @llvm.lifetime.start.p0(i64 4, ptr %9) #8
  %109 = load ptr, ptr %6, align 8, !tbaa !3
  %110 = getelementptr inbounds nuw %struct.sp_int, ptr %109, i32 0, i32 0
  %111 = load i16, ptr %110, align 8, !tbaa !15
  %112 = zext i16 %111 to i32
  %113 = icmp sgt i32 %112, 0
  br i1 %113, label %114, label %143

114:                                              ; preds = %108
  %115 = load ptr, ptr %6, align 8, !tbaa !3
  %116 = getelementptr inbounds nuw %struct.sp_int, ptr %115, i32 0, i32 0
  %117 = load i16, ptr %116, align 8, !tbaa !15
  %118 = zext i16 %117 to i32
  %119 = sub nsw i32 %118, 1
  store i32 %119, ptr %9, align 4, !tbaa !8
  br label %120

120:                                              ; preds = %134, %114
  %121 = load i32, ptr %9, align 4, !tbaa !8
  %122 = icmp sge i32 %121, 0
  br i1 %122, label %123, label %131

123:                                              ; preds = %120
  %124 = load ptr, ptr %6, align 8, !tbaa !3
  %125 = getelementptr inbounds nuw %struct.sp_int, ptr %124, i32 0, i32 2
  %126 = load i32, ptr %9, align 4, !tbaa !8
  %127 = sext i32 %126 to i64
  %128 = getelementptr inbounds [129 x i64], ptr %125, i64 0, i64 %127
  %129 = load i64, ptr %128, align 8, !tbaa !16
  %130 = icmp eq i64 %129, 0
  br label %131

131:                                              ; preds = %123, %120
  %132 = phi i1 [ false, %120 ], [ %130, %123 ]
  br i1 %132, label %133, label %137

133:                                              ; preds = %131
  br label %134

134:                                              ; preds = %133
  %135 = load i32, ptr %9, align 4, !tbaa !8
  %136 = add nsw i32 %135, -1
  store i32 %136, ptr %9, align 4, !tbaa !8
  br label %120, !llvm.loop !46

137:                                              ; preds = %131
  %138 = load i32, ptr %9, align 4, !tbaa !8
  %139 = add nsw i32 %138, 1
  %140 = trunc i32 %139 to i16
  %141 = load ptr, ptr %6, align 8, !tbaa !3
  %142 = getelementptr inbounds nuw %struct.sp_int, ptr %141, i32 0, i32 0
  store i16 %140, ptr %142, align 8, !tbaa !15
  br label %143

143:                                              ; preds = %137, %108
  call void @llvm.lifetime.end.p0(i64 4, ptr %9) #8
  br label %144

144:                                              ; preds = %143
  br label %145

145:                                              ; preds = %144
  call void @llvm.lifetime.end.p0(i64 8, ptr %8) #8
  call void @llvm.lifetime.end.p0(i64 4, ptr %7) #8
  br label %146

146:                                              ; preds = %145, %20
  ret void
}

; Function Attrs: nounwind uwtable
define i32 @sp_sub_d(ptr noundef %0, i64 noundef %1, ptr noundef %2) #0 {
  %4 = alloca ptr, align 8
  %5 = alloca i64, align 8
  %6 = alloca ptr, align 8
  %7 = alloca i32, align 4
  store ptr %0, ptr %4, align 8, !tbaa !3
  store i64 %1, ptr %5, align 8, !tbaa !16
  store ptr %2, ptr %6, align 8, !tbaa !3
  call void @llvm.lifetime.start.p0(i64 4, ptr %7) #8
  store i32 0, ptr %7, align 4, !tbaa !8
  %8 = load ptr, ptr %4, align 8, !tbaa !3
  %9 = icmp eq ptr %8, null
  br i1 %9, label %13, label %10

10:                                               ; preds = %3
  %11 = load ptr, ptr %6, align 8, !tbaa !3
  %12 = icmp eq ptr %11, null
  br i1 %12, label %13, label %14

13:                                               ; preds = %10, %3
  store i32 -98, ptr %7, align 4, !tbaa !8
  br label %14

14:                                               ; preds = %13, %10
  %15 = load i32, ptr %7, align 4, !tbaa !8
  %16 = icmp eq i32 %15, 0
  br i1 %16, label %17, label %28

17:                                               ; preds = %14
  %18 = load ptr, ptr %4, align 8, !tbaa !3
  %19 = getelementptr inbounds nuw %struct.sp_int, ptr %18, i32 0, i32 0
  %20 = load i16, ptr %19, align 8, !tbaa !15
  %21 = zext i16 %20 to i32
  %22 = load ptr, ptr %6, align 8, !tbaa !3
  %23 = getelementptr inbounds nuw %struct.sp_int, ptr %22, i32 0, i32 1
  %24 = load i16, ptr %23, align 2, !tbaa !12
  %25 = zext i16 %24 to i32
  %26 = icmp sgt i32 %21, %25
  br i1 %26, label %27, label %28

27:                                               ; preds = %17
  store i32 -98, ptr %7, align 4, !tbaa !8
  br label %28

28:                                               ; preds = %27, %17, %14
  %29 = load i32, ptr %7, align 4, !tbaa !8
  %30 = icmp eq i32 %29, 0
  br i1 %30, label %31, label %35

31:                                               ; preds = %28
  %32 = load ptr, ptr %4, align 8, !tbaa !3
  %33 = load i64, ptr %5, align 8, !tbaa !16
  %34 = load ptr, ptr %6, align 8, !tbaa !3
  call void @_sp_sub_d(ptr noundef %32, i64 noundef %33, ptr noundef %34)
  br label %35

35:                                               ; preds = %31, %28
  %36 = load i32, ptr %7, align 4, !tbaa !8
  call void @llvm.lifetime.end.p0(i64 4, ptr %7) #8
  ret i32 %36
}