; Function Attrs: nofree norecurse nosync nounwind memory(argmem: readwrite) uwtable
define range(i32 -98, 1) i32 @sp_sub_d(ptr noundef readonly captures(address) %0, i64 noundef %1, ptr noundef captures(address) %2) local_unnamed_addr #8 {
  %4 = icmp ne ptr %0, null
  %5 = icmp ne ptr %2, null
  %or.cond.not = and i1 %4, %5
  br i1 %or.cond.not, label %6, label %_sp_sub_d.exit

6:                                                ; preds = %3
  %7 = load i16, ptr %0, align 8, !tbaa !12
  %8 = getelementptr inbounds nuw i8, ptr %2, i64 2
  %9 = load i16, ptr %8, align 2, !tbaa !10
  %10 = icmp ugt i16 %7, %9
  br i1 %10, label %_sp_sub_d.exit, label %.thread

.thread:                                          ; preds = %6
  store i16 %7, ptr %2, align 8, !tbaa !12
  %11 = icmp eq i16 %7, 0
  br i1 %11, label %12, label %14

12:                                               ; preds = %.thread
  %13 = getelementptr inbounds nuw i8, ptr %2, i64 8
  store i64 0, ptr %13, align 8, !tbaa !8
  br label %_sp_sub_d.exit

14:                                               ; preds = %.thread
  %15 = getelementptr inbounds nuw i8, ptr %0, i64 8
  %16 = load i64, ptr %15, align 8, !tbaa !8
  %17 = sub i64 %16, %1
  %18 = getelementptr inbounds nuw i8, ptr %2, i64 8
  store i64 %17, ptr %18, align 8, !tbaa !8
  %19 = icmp ugt i64 %1, %16
  %20 = zext i16 %7 to i32
  br i1 %19, label %.preheader42.i, label %.loopexit43.i

.preheader42.i:                                   ; preds = %14
  %.not50.i = icmp eq i16 %7, 1
  br i1 %.not50.i, label %.loopexit43.i, label %.lr.ph.preheader.i

.lr.ph.preheader.i:                               ; preds = %.preheader42.i
  %wide.trip.count.i = zext i16 %7 to i64
  br label %.lr.ph.i

.lr.ph.i:                                         ; preds = %25, %.lr.ph.preheader.i
  %indvars.iv.i = phi i64 [ 1, %.lr.ph.preheader.i ], [ %indvars.iv.next.i, %25 ]
  %21 = getelementptr inbounds nuw [129 x i64], ptr %15, i64 0, i64 %indvars.iv.i
  %22 = load i64, ptr %21, align 8, !tbaa !8
  %23 = add i64 %22, -1
  %24 = getelementptr inbounds nuw [129 x i64], ptr %18, i64 0, i64 %indvars.iv.i
  store i64 %23, ptr %24, align 8, !tbaa !8
  %.not.i = icmp eq i64 %22, 0
  br i1 %.not.i, label %25, label %.loopexit43.loopexit.split.loop.exit61.i

25:                                               ; preds = %.lr.ph.i
  %indvars.iv.next.i = add nuw nsw i64 %indvars.iv.i, 1
  %exitcond.not.i = icmp eq i64 %indvars.iv.next.i, %wide.trip.count.i
  br i1 %exitcond.not.i, label %.loopexit43.i, label %.lr.ph.i, !llvm.loop !27

.loopexit43.loopexit.split.loop.exit61.i:         ; preds = %.lr.ph.i
  %26 = trunc nuw nsw i64 %indvars.iv.i to i32
  br label %.loopexit43.i

.loopexit43.i:                                    ; preds = %25, %14, %.loopexit43.loopexit.split.loop.exit61.i, %.preheader42.i
  %.pre-phi = phi i32 [ %20, %.loopexit43.loopexit.split.loop.exit61.i ], [ 1, %.preheader42.i ], [ %20, %14 ], [ %20, %25 ]
  %.037.i = phi i32 [ %26, %.loopexit43.loopexit.split.loop.exit61.i ], [ 1, %.preheader42.i ], [ 0, %14 ], [ %20, %25 ]
  %.not40.i = icmp ne ptr %2, %0
  %.247.i = add nuw i32 %.037.i, 1
  %27 = icmp ult i32 %.247.i, %.pre-phi
  %or.cond.i = select i1 %.not40.i, i1 %27, i1 false
  br i1 %or.cond.i, label %.lr.ph49.preheader.i, label %.loopexit43.i..loopexit.i_crit_edge

.loopexit43.i..loopexit.i_crit_edge:              ; preds = %.loopexit43.i
  %.pre21 = zext i16 %7 to i64
  br label %.loopexit.i.preheader

.lr.ph49.preheader.i:                             ; preds = %.loopexit43.i
  %28 = zext nneg i32 %.037.i to i64
  %29 = add nuw nsw i64 %28, 1
  %wide.trip.count56.i = zext i16 %7 to i64
  br label %.lr.ph49.i

.lr.ph49.i:                                       ; preds = %.lr.ph49.i, %.lr.ph49.preheader.i
  %indvars.iv53.i = phi i64 [ %29, %.lr.ph49.preheader.i ], [ %indvars.iv.next54.i, %.lr.ph49.i ]
  %30 = getelementptr inbounds nuw [129 x i64], ptr %15, i64 0, i64 %indvars.iv53.i
  %31 = load i64, ptr %30, align 8, !tbaa !8
  %32 = getelementptr inbounds nuw [129 x i64], ptr %18, i64 0, i64 %indvars.iv53.i
  store i64 %31, ptr %32, align 8, !tbaa !8
  %indvars.iv.next54.i = add nuw nsw i64 %indvars.iv53.i, 1
  %exitcond57.not.i = icmp eq i64 %indvars.iv.next54.i, %wide.trip.count56.i
  br i1 %exitcond57.not.i, label %.loopexit.i.preheader, label %.lr.ph49.i, !llvm.loop !28

.loopexit.i.preheader:                            ; preds = %.lr.ph49.i, %.loopexit43.i..loopexit.i_crit_edge
  %indvars.iv58.i.ph = phi i64 [ %.pre21, %.loopexit43.i..loopexit.i_crit_edge ], [ %wide.trip.count56.i, %.lr.ph49.i ]
  br label %.loopexit.i

.loopexit.i:                                      ; preds = %.loopexit.i.preheader, %34
  %indvars.iv58.i = phi i64 [ %indvars.iv.next59.i, %34 ], [ %indvars.iv58.i.ph, %.loopexit.i.preheader ]
  %33 = icmp sgt i64 %indvars.iv58.i, 0
  br i1 %33, label %34, label %.critedge.i

34:                                               ; preds = %.loopexit.i
  %indvars.iv.next59.i = add nsw i64 %indvars.iv58.i, -1
  %35 = getelementptr inbounds nuw [129 x i64], ptr %18, i64 0, i64 %indvars.iv.next59.i
  %36 = load i64, ptr %35, align 8, !tbaa !8
  %37 = icmp eq i64 %36, 0
  br i1 %37, label %.loopexit.i, label %.critedge.split.loop.exit63.i, !llvm.loop !29

.critedge.split.loop.exit63.i:                    ; preds = %34
  %38 = trunc i64 %indvars.iv58.i to i16
  br label %.critedge.i

.critedge.i:                                      ; preds = %.loopexit.i, %.critedge.split.loop.exit63.i
  %.0.in.lcssa.i = phi i16 [ %38, %.critedge.split.loop.exit63.i ], [ 0, %.loopexit.i ]
  store i16 %.0.in.lcssa.i, ptr %2, align 8, !tbaa !12
  br label %_sp_sub_d.exit

_sp_sub_d.exit:                                   ; preds = %3, %6, %.critedge.i, %12
  %.012 = phi i32 [ 0, %12 ], [ 0, %.critedge.i ], [ -98, %6 ], [ -98, %3 ]
  ret i32 %.012
}